; Function Attrs: mustprogress uwtable
define void @_ZN5arrow8internal8FileTellEi(ptr dead_on_unwind noalias writable sret(%"class.arrow::Result.38") align 8 %0, i32 noundef %1) local_unnamed_addr #3 {
  %3 = alloca %"class.arrow::Status", align 8
  tail call void @llvm.experimental.noalias.scope.decl(metadata !389)
  %4 = tail call i64 @lseek64(i32 noundef %1, i64 noundef 0, i32 noundef 1) #38, !noalias !389
  %5 = icmp eq i64 %4, -1
  br i1 %5, label %6, label %13

6:                                                ; preds = %2
  call void @llvm.lifetime.start.p0(i64 8, ptr nonnull %3) #38, !noalias !389
  call void @_ZN5arrow6Status8FromArgsIJRA13_KcEEES0_NS_10StatusCodeEDpOT_(ptr dead_on_unwind nonnull writable sret(%"class.arrow::Status") align 8 %3, i8 noundef signext 5, ptr noundef nonnull align 1 dereferenceable(13) @.str.50), !noalias !389
  call void @_ZN5arrow6ResultIlEC2ERKNS_6StatusE(ptr noundef nonnull align 8 dereferenceable(16) %0, ptr noundef nonnull align 8 dereferenceable(8) %3) #38
  %7 = load ptr, ptr %3, align 8, !tbaa !89, !noalias !389
  %.not.i.i = icmp eq ptr %7, null
  br i1 %.not.i.i, label %_ZN5arrow6StatusD2Ev.exit.i, label %8, !prof !92

8:                                                ; preds = %6
  %9 = getelementptr inbounds nuw i8, ptr %7, i64 1
  %10 = load i8, ptr %9, align 1, !tbaa !93, !range !98, !noundef !99
  %11 = trunc nuw i8 %10 to i1
  br i1 %11, label %_ZN5arrow6StatusD2Ev.exit.i, label %12

12:                                               ; preds = %8
  call void @_ZN5arrow6Status11DeleteStateEv(ptr noundef nonnull align 8 dereferenceable(8) %3) #38
  br label %_ZN5arrow6StatusD2Ev.exit.i

_ZN5arrow6StatusD2Ev.exit.i:                      ; preds = %12, %8, %6
  call void @llvm.lifetime.end.p0(i64 8, ptr nonnull %3) #38, !noalias !389
  br label %_ZN5arrow8internalL14lseek64_compatEili.exit

13:                                               ; preds = %2
  store ptr null, ptr %0, align 8, !tbaa !89, !alias.scope !389
  %14 = getelementptr inbounds nuw i8, ptr %0, i64 8
  store i64 %4, ptr %14, align 8, !tbaa !9, !alias.scope !389
  br label %_ZN5arrow8internalL14lseek64_compatEili.exit

_ZN5arrow8internalL14lseek64_compatEili.exit:     ; preds = %_ZN5arrow6StatusD2Ev.exit.i, %13
  ret void
}